target datalayout = "e-m:e-p270:32:32-p271:32:32-p272:64:64-i64:64-i128:128-f80:128-n8:16:32:64-S128"
target triple = "x86_64-pc-linux-gnu"

%"class.std::vector.26" = type { %"struct.std::_Vector_base.27" }
%"struct.std::_Vector_base.27" = type { %"struct.std::_Vector_base<int, std::allocator<int>>::_Vector_impl" }
%"struct.std::_Vector_base<int, std::allocator<int>>::_Vector_impl" = type { %"struct.std::_Vector_base<int, std::allocator<int>>::_Vector_impl_data" }
%"struct.std::_Vector_base<int, std::allocator<int>>::_Vector_impl_data" = type { ptr, ptr, ptr }
%struct.anon.93 = type { float, float }
%union.t_iparams = type { %struct.anon.96 }
%struct.anon.96 = type { [3 x float], [3 x float], [3 x float], [3 x float] }
%struct.InteractionList = type { %"class.std::vector.26" }
%"class.gmx::ArrayRef.323" = type { %"struct.gmx::ArrayRefIter.324", %"struct.gmx::ArrayRefIter.324" }
%"struct.gmx::ArrayRefIter.324" = type { ptr }
%"class.gmx::ArrayRef.326" = type { %"struct.gmx::ArrayRefIter.327", %"struct.gmx::ArrayRefIter.327" }
%"struct.gmx::ArrayRefIter.327" = type { ptr }

; Function Attrs: mustprogress nounwind uwtable
define linkonce_odr noundef nonnull align 4 dereferenceable(48) ptr @_ZNK3gmx12ArrayRefIterIK9t_iparamsEdeEv(ptr noundef nonnull align 8 dereferenceable(8) %0) #0 comdat align 2 {
  %2 = alloca ptr, align 8
  store ptr %0, ptr %2, align 8, !tbaa !596
  %3 = load ptr, ptr %2, align 8
  %4 = getelementptr inbounds nuw %"struct.gmx::ArrayRefIter.327", ptr %3, i32 0, i32 0
  %5 = load ptr, ptr %4, align 8, !tbaa !598
  ret ptr %5
}

; Function Attrs: mustprogress nounwind uwtable
define linkonce_odr noundef nonnull align 8 dereferenceable(8) ptr @_ZN3gmx12ArrayRefIterIK9t_iparamsEpLEl(ptr noundef nonnull align 8 dereferenceable(8) %0, i64 noundef %1) #0 comdat align 2 {
  %3 = alloca ptr, align 8
  %4 = alloca i64, align 8
  store ptr %0, ptr %3, align 8, !tbaa !596
  store i64 %1, ptr %4, align 8, !tbaa !80
  %5 = load ptr, ptr %3, align 8
  %6 = load i64, ptr %4, align 8, !tbaa !80
  %7 = getelementptr inbounds nuw %"struct.gmx::ArrayRefIter.327", ptr %5, i32 0, i32 0
  %8 = load ptr, ptr %7, align 8, !tbaa !598
  %9 = getelementptr inbounds %union.t_iparams, ptr %8, i64 %6
  store ptr %9, ptr %7, align 8, !tbaa !598
  ret ptr %5
}

; Function Attrs: mustprogress nounwind uwtable
define linkonce_odr noundef nonnull align 8 dereferenceable(8) ptr @_ZNK3gmx5boost14stl_interfaces2v118iterator_interfaceINS_12ArrayRefIterIK9t_iparamsEESt26random_access_iterator_tagS6_RS6_PS6_lvE7derivedEv(ptr noundef nonnull align 1 dereferenceable(1) %0) #0 comdat align 2 {
  %2 = alloca ptr, align 8
  store ptr %0, ptr %2, align 8, !tbaa !594
  %3 = load ptr, ptr %2, align 8
  ret ptr %3
}

; Function Attrs: mustprogress nounwind uwtable
define linkonce_odr noundef nonnull align 8 dereferenceable(24) ptr @_ZNK3gmx12ArrayRefIterIK15InteractionListEdeEv(ptr noundef nonnull align 8 dereferenceable(8) %0) #0 comdat align 2 {
  %2 = alloca ptr, align 8
  store ptr %0, ptr %2, align 8, !tbaa !590
  %3 = load ptr, ptr %2, align 8
  %4 = getelementptr inbounds nuw %"struct.gmx::ArrayRefIter.324", ptr %3, i32 0, i32 0
  %5 = load ptr, ptr %4, align 8, !tbaa !592
  ret ptr %5
}

; Function Attrs: mustprogress nounwind uwtable
define linkonce_odr noundef nonnull align 8 dereferenceable(8) ptr @_ZN3gmx12ArrayRefIterIK15InteractionListEpLEl(ptr noundef nonnull align 8 dereferenceable(8) %0, i64 noundef %1) #0 comdat align 2 {
  %3 = alloca ptr, align 8
  %4 = alloca i64, align 8
  store ptr %0, ptr %3, align 8, !tbaa !590
  store i64 %1, ptr %4, align 8, !tbaa !80
  %5 = load ptr, ptr %3, align 8
  %6 = load i64, ptr %4, align 8, !tbaa !80
  %7 = getelementptr inbounds nuw %"struct.gmx::ArrayRefIter.324", ptr %5, i32 0, i32 0
  %8 = load ptr, ptr %7, align 8, !tbaa !592
  %9 = getelementptr inbounds %struct.InteractionList, ptr %8, i64 %6
  store ptr %9, ptr %7, align 8, !tbaa !592
  ret ptr %5
}

; Function Attrs: mustprogress nounwind uwtable
define linkonce_odr noundef nonnull align 8 dereferenceable(8) ptr @_ZNK3gmx5boost14stl_interfaces2v118iterator_interfaceINS_12ArrayRefIterIK15InteractionListEESt26random_access_iterator_tagS6_RS6_PS6_lvE7derivedEv(ptr noundef nonnull align 1 dereferenceable(1) %0) #0 comdat align 2 {
  %2 = alloca ptr, align 8
  store ptr %0, ptr %2, align 8, !tbaa !588
  %3 = load ptr, ptr %2, align 8
  ret ptr %3
}

; Function Attrs: mustprogress nounwind uwtable
define linkonce_odr noundef nonnull align 4 dereferenceable(48) ptr @_ZNK3gmx5boost14stl_interfaces2v118iterator_interfaceINS_12ArrayRefIterIK9t_iparamsEESt26random_access_iterator_tagS6_RS6_PS6_lvEixIS7_EEDTcmpLclsr3stdE7declvalIRT_EEfp_declsr3stdE7declvalISE_EEEl(ptr noundef nonnull align 1 dereferenceable(1) %0, i64 noundef %1) #0 comdat align 2 {
  %3 = alloca ptr, align 8
  %4 = alloca i64, align 8
  %5 = alloca %"struct.gmx::ArrayRefIter.327", align 8
  store ptr %0, ptr %3, align 8, !tbaa !594
  store i64 %1, ptr %4, align 8, !tbaa !80
  %6 = load ptr, ptr %3, align 8
  call void @llvm.lifetime.start.p0(i64 8, ptr %5) #15
  %7 = call noundef nonnull align 8 dereferenceable(8) ptr @_ZNK3gmx5boost14stl_interfaces2v118iterator_interfaceINS_12ArrayRefIterIK9t_iparamsEESt26random_access_iterator_tagS6_RS6_PS6_lvE7derivedEv(ptr noundef nonnull align 1 dereferenceable(1) %6) #15
  call void @llvm.memcpy.p0.p0.i64(ptr align 8 %5, ptr align 8 %7, i64 8, i1 false)
  %8 = load i64, ptr %4, align 8, !tbaa !80
  %9 = call noundef nonnull align 8 dereferenceable(8) ptr @_ZN3gmx12ArrayRefIterIK9t_iparamsEpLEl(ptr noundef nonnull align 8 dereferenceable(8) %5, i64 noundef %8) #15
  %10 = call noundef nonnull align 4 dereferenceable(48) ptr @_ZNK3gmx12ArrayRefIterIK9t_iparamsEdeEv(ptr noundef nonnull align 8 dereferenceable(8) %5) #15
  call void @llvm.lifetime.end.p0(i64 8, ptr %5) #15
  ret ptr %10
}

; Function Attrs: mustprogress nounwind uwtable
define linkonce_odr noundef i64 @_ZNKSt6vectorIiSaIiEE4sizeEv(ptr noundef nonnull align 8 dereferenceable(24) %0) #0 comdat align 2 {
  %2 = alloca ptr, align 8
  store ptr %0, ptr %2, align 8, !tbaa !86
  %3 = load ptr, ptr %2, align 8
  %4 = getelementptr inbounds nuw %"struct.std::_Vector_base.27", ptr %3, i32 0, i32 0
  %5 = getelementptr inbounds nuw %"struct.std::_Vector_base<int, std::allocator<int>>::_Vector_impl_data", ptr %4, i32 0, i32 1
  %6 = load ptr, ptr %5, align 8, !tbaa !87
  %7 = getelementptr inbounds nuw %"struct.std::_Vector_base.27", ptr %3, i32 0, i32 0
  %8 = getelementptr inbounds nuw %"struct.std::_Vector_base<int, std::allocator<int>>::_Vector_impl_data", ptr %7, i32 0, i32 0
  %9 = load ptr, ptr %8, align 8, !tbaa !90
  %10 = ptrtoint ptr %6 to i64
  %11 = ptrtoint ptr %9 to i64
  %12 = sub i64 %10, %11
  %13 = sdiv exact i64 %12, 4
  ret i64 %13
}

; Function Attrs: mustprogress nounwind uwtable
define linkonce_odr noundef nonnull align 8 dereferenceable(24) ptr @_ZNK3gmx5boost14stl_interfaces2v118iterator_interfaceINS_12ArrayRefIterIK15InteractionListEESt26random_access_iterator_tagS6_RS6_PS6_lvEixIS7_EEDTcmpLclsr3stdE7declvalIRT_EEfp_declsr3stdE7declvalISE_EEEl(ptr noundef nonnull align 1 dereferenceable(1) %0, i64 noundef %1) #0 comdat align 2 {
  %3 = alloca ptr, align 8
  %4 = alloca i64, align 8
  %5 = alloca %"struct.gmx::ArrayRefIter.324", align 8
  store ptr %0, ptr %3, align 8, !tbaa !588
  store i64 %1, ptr %4, align 8, !tbaa !80
  %6 = load ptr, ptr %3, align 8
  call void @llvm.lifetime.start.p0(i64 8, ptr %5) #15
  %7 = call noundef nonnull align 8 dereferenceable(8) ptr @_ZNK3gmx5boost14stl_interfaces2v118iterator_interfaceINS_12ArrayRefIterIK15InteractionListEESt26random_access_iterator_tagS6_RS6_PS6_lvE7derivedEv(ptr noundef nonnull align 1 dereferenceable(1) %6) #15
  call void @llvm.memcpy.p0.p0.i64(ptr align 8 %5, ptr align 8 %7, i64 8, i1 false)
  %8 = load i64, ptr %4, align 8, !tbaa !80
  %9 = call noundef nonnull align 8 dereferenceable(8) ptr @_ZN3gmx12ArrayRefIterIK15InteractionListEpLEl(ptr noundef nonnull align 8 dereferenceable(8) %5, i64 noundef %8) #15
  %10 = call noundef nonnull align 8 dereferenceable(24) ptr @_ZNK3gmx12ArrayRefIterIK15InteractionListEdeEv(ptr noundef nonnull align 8 dereferenceable(8) %5) #15
  call void @llvm.lifetime.end.p0(i64 8, ptr %5) #15
  ret ptr %10
}

; Function Attrs: mustprogress nounwind uwtable
define linkonce_odr noundef nonnull align 4 dereferenceable(48) ptr @_ZNK3gmx8ArrayRefIK9t_iparamsEixEm(ptr noundef nonnull align 8 dereferenceable(16) %0, i64 noundef %1) #0 comdat align 2 {
  %3 = alloca ptr, align 8
  %4 = alloca i64, align 8
  store ptr %0, ptr %3, align 8, !tbaa !569
  store i64 %1, ptr %4, align 8, !tbaa !80
  %5 = load ptr, ptr %3, align 8
  %6 = getelementptr inbounds nuw %"class.gmx::ArrayRef.326", ptr %5, i32 0, i32 0
  %7 = load i64, ptr %4, align 8, !tbaa !80
  %8 = call noundef nonnull align 4 dereferenceable(48) ptr @_ZNK3gmx5boost14stl_interfaces2v118iterator_interfaceINS_12ArrayRefIterIK9t_iparamsEESt26random_access_iterator_tagS6_RS6_PS6_lvEixIS7_EEDTcmpLclsr3stdE7declvalIRT_EEfp_declsr3stdE7declvalISE_EEEl(ptr noundef nonnull align 1 dereferenceable(1) %6, i64 noundef %7) #15
  ret ptr %8
}

; Function Attrs: mustprogress nounwind uwtable
define linkonce_odr noundef nonnull align 4 dereferenceable(4) ptr @_ZNKSt6vectorIiSaIiEEixEm(ptr noundef nonnull align 8 dereferenceable(24) %0, i64 noundef %1) #0 comdat align 2 {
  %3 = alloca ptr, align 8
  %4 = alloca i64, align 8
  store ptr %0, ptr %3, align 8, !tbaa !86
  store i64 %1, ptr %4, align 8, !tbaa !80
  %5 = load ptr, ptr %3, align 8
  %6 = getelementptr inbounds nuw %"struct.std::_Vector_base.27", ptr %5, i32 0, i32 0
  %7 = getelementptr inbounds nuw %"struct.std::_Vector_base<int, std::allocator<int>>::_Vector_impl_data", ptr %6, i32 0, i32 0
  %8 = load ptr, ptr %7, align 8, !tbaa !90
  %9 = load i64, ptr %4, align 8, !tbaa !80
  %10 = getelementptr inbounds nuw i32, ptr %8, i64 %9
  ret ptr %10
}

; Function Attrs: mustprogress nounwind uwtable
define linkonce_odr noundef i32 @_ZNK15InteractionList4sizeEv(ptr noundef nonnull align 8 dereferenceable(24) %0) #0 comdat align 2 {
  %2 = alloca ptr, align 8
  store ptr %0, ptr %2, align 8, !tbaa !260
  %3 = load ptr, ptr %2, align 8
  %4 = getelementptr inbounds nuw %struct.InteractionList, ptr %3, i32 0, i32 0
  %5 = call noundef i64 @_ZNKSt6vectorIiSaIiEE4sizeEv(ptr noundef nonnull align 8 dereferenceable(24) %4) #15
  %6 = trunc i64 %5 to i32
  ret i32 %6
}

; Function Attrs: mustprogress nounwind uwtable
define linkonce_odr noundef nonnull align 8 dereferenceable(24) ptr @_ZNK3gmx8ArrayRefIK15InteractionListEixEm(ptr noundef nonnull align 8 dereferenceable(16) %0, i64 noundef %1) #0 comdat align 2 {
  %3 = alloca ptr, align 8
  %4 = alloca i64, align 8
  store ptr %0, ptr %3, align 8, !tbaa !567
  store i64 %1, ptr %4, align 8, !tbaa !80
  %5 = load ptr, ptr %3, align 8
  %6 = getelementptr inbounds nuw %"class.gmx::ArrayRef.323", ptr %5, i32 0, i32 0
  %7 = load i64, ptr %4, align 8, !tbaa !80
  %8 = call noundef nonnull align 8 dereferenceable(24) ptr @_ZNK3gmx5boost14stl_interfaces2v118iterator_interfaceINS_12ArrayRefIterIK15InteractionListEESt26random_access_iterator_tagS6_RS6_PS6_lvEixIS7_EEDTcmpLclsr3stdE7declvalIRT_EEfp_declsr3stdE7declvalISE_EEEl(ptr noundef nonnull align 1 dereferenceable(1) %6, i64 noundef %7) #15
  ret ptr %8
}

; Function Attrs: mustprogress nounwind uwtable
define noundef i32 @_ZN3gmx24countFlexibleConstraintsENS_8ArrayRefIK15InteractionListEENS0_IK9t_iparamsEE(ptr %0, ptr %1, ptr %2, ptr %3) #0 {
  %5 = alloca %"class.gmx::ArrayRef.323", align 8
  %6 = alloca %"class.gmx::ArrayRef.326", align 8
  %7 = alloca i32, align 4
  %8 = alloca i32, align 4
  %9 = alloca i32, align 4
  %10 = alloca i32, align 4
  %11 = alloca i32, align 4
  %12 = alloca i32, align 4
  %13 = getelementptr inbounds nuw { ptr, ptr }, ptr %5, i32 0, i32 0
  store ptr %0, ptr %13, align 8
  %14 = getelementptr inbounds nuw { ptr, ptr }, ptr %5, i32 0, i32 1
  store ptr %1, ptr %14, align 8
  %15 = getelementptr inbounds nuw { ptr, ptr }, ptr %6, i32 0, i32 0
  store ptr %2, ptr %15, align 8
  %16 = getelementptr inbounds nuw { ptr, ptr }, ptr %6, i32 0, i32 1
  store ptr %3, ptr %16, align 8
  call void @llvm.lifetime.start.p0(i64 4, ptr %7) #15
  store i32 0, ptr %7, align 4, !tbaa !82
  call void @llvm.lifetime.start.p0(i64 4, ptr %8) #15
  store i32 62, ptr %8, align 4, !tbaa !82
  br label %17

17:                                               ; preds = %60, %4
  %18 = load i32, ptr %8, align 4, !tbaa !82
  %19 = icmp sle i32 %18, 63
  br i1 %19, label %21, label %20

20:                                               ; preds = %17
  store i32 2, ptr %9, align 4
  call void @llvm.lifetime.end.p0(i64 4, ptr %8) #15
  br label %63

21:                                               ; preds = %17
  call void @llvm.lifetime.start.p0(i64 4, ptr %10) #15
  store i32 3, ptr %10, align 4, !tbaa !82
  call void @llvm.lifetime.start.p0(i64 4, ptr %11) #15
  store i32 0, ptr %11, align 4, !tbaa !82
  br label %22

22:                                               ; preds = %56, %21
  %23 = load i32, ptr %11, align 4, !tbaa !82
  %24 = load i32, ptr %8, align 4, !tbaa !82
  %25 = sext i32 %24 to i64
  %26 = call noundef nonnull align 8 dereferenceable(24) ptr @_ZNK3gmx8ArrayRefIK15InteractionListEixEm(ptr noundef nonnull align 8 dereferenceable(16) %5, i64 noundef %25)
  %27 = call noundef i32 @_ZNK15InteractionList4sizeEv(ptr noundef nonnull align 8 dereferenceable(24) %26)
  %28 = icmp slt i32 %23, %27
  br i1 %28, label %30, label %29

29:                                               ; preds = %22
  store i32 5, ptr %9, align 4
  call void @llvm.lifetime.end.p0(i64 4, ptr %11) #15
  br label %59

30:                                               ; preds = %22
  call void @llvm.lifetime.start.p0(i64 4, ptr %12) #15
  %31 = load i32, ptr %8, align 4, !tbaa !82
  %32 = sext i32 %31 to i64
  %33 = call noundef nonnull align 8 dereferenceable(24) ptr @_ZNK3gmx8ArrayRefIK15InteractionListEixEm(ptr noundef nonnull align 8 dereferenceable(16) %5, i64 noundef %32)
  %34 = getelementptr inbounds nuw %struct.InteractionList, ptr %33, i32 0, i32 0
  %35 = load i32, ptr %11, align 4, !tbaa !82
  %36 = sext i32 %35 to i64
  %37 = call noundef nonnull align 4 dereferenceable(4) ptr @_ZNKSt6vectorIiSaIiEEixEm(ptr noundef nonnull align 8 dereferenceable(24) %34, i64 noundef %36) #15
  %38 = load i32, ptr %37, align 4, !tbaa !82
  store i32 %38, ptr %12, align 4, !tbaa !82
  %39 = load i32, ptr %12, align 4, !tbaa !82
  %40 = sext i32 %39 to i64
  %41 = call noundef nonnull align 4 dereferenceable(48) ptr @_ZNK3gmx8ArrayRefIK9t_iparamsEixEm(ptr noundef nonnull align 8 dereferenceable(16) %6, i64 noundef %40)
  %42 = getelementptr inbounds nuw %struct.anon.93, ptr %41, i32 0, i32 0
  %43 = load float, ptr %42, align 4, !tbaa !83
  %44 = fcmp oeq float %43, 0.000000e+00
  br i1 %44, label %45, label %55

45:                                               ; preds = %30
  %46 = load i32, ptr %12, align 4, !tbaa !82
  %47 = sext i32 %46 to i64
  %48 = call noundef nonnull align 4 dereferenceable(48) ptr @_ZNK3gmx8ArrayRefIK9t_iparamsEixEm(ptr noundef nonnull align 8 dereferenceable(16) %6, i64 noundef %47)
  %49 = getelementptr inbounds nuw %struct.anon.93, ptr %48, i32 0, i32 1
  %50 = load float, ptr %49, align 4, !tbaa !83
  %51 = fcmp oeq float %50, 0.000000e+00
  br i1 %51, label %52, label %55

52:                                               ; preds = %45
  %53 = load i32, ptr %7, align 4, !tbaa !82
  %54 = add nsw i32 %53, 1
  store i32 %54, ptr %7, align 4, !tbaa !82
  br label %55

55:                                               ; preds = %52, %45, %30
  call void @llvm.lifetime.end.p0(i64 4, ptr %12) #15
  br label %56

56:                                               ; preds = %55
  %57 = load i32, ptr %11, align 4, !tbaa !82
  %58 = add nsw i32 %57, 3
  store i32 %58, ptr %11, align 4, !tbaa !82
  br label %22, !llvm.loop !702

59:                                               ; preds = %29
  call void @llvm.lifetime.end.p0(i64 4, ptr %10) #15
  br label %60

60:                                               ; preds = %59
  %61 = load i32, ptr %8, align 4, !tbaa !82
  %62 = add nsw i32 %61, 1
  store i32 %62, ptr %8, align 4, !tbaa !82
  br label %17, !llvm.loop !703

63:                                               ; preds = %20
  %64 = load i32, ptr %7, align 4, !tbaa !82
  store i32 1, ptr %9, align 4
  call void @llvm.lifetime.end.p0(i64 4, ptr %7) #15
  ret i32 %64
}