; Function Attrs: mustprogress nofree norecurse nosync nounwind willreturn memory(read, inaccessiblemem: none) uwtable
define noundef i32 @_ZN3gmx24countFlexibleConstraintsENS_8ArrayRefIK15InteractionListEENS0_IK9t_iparamsEE(ptr readonly captures(none) %0, ptr readnone captures(none) %1, ptr readonly captures(none) %2, ptr readnone captures(none) %3) local_unnamed_addr #5 {
  br label %.preheader

.preheader:                                       ; preds = %4, %._crit_edge
  %indvars.iv22 = phi i64 [ 62, %4 ], [ %indvars.iv.next23, %._crit_edge ]
  %.020 = phi i32 [ 0, %4 ], [ %.1.lcssa, %._crit_edge ]
  %5 = getelementptr inbounds nuw %struct.InteractionList, ptr %0, i64 %indvars.iv22
  %6 = getelementptr inbounds nuw i8, ptr %5, i64 8
  %7 = load ptr, ptr %6, align 8, !tbaa !57
  %8 = load ptr, ptr %5, align 8, !tbaa !60
  %9 = ptrtoint ptr %7 to i64
  %10 = ptrtoint ptr %8 to i64
  %11 = sub i64 %9, %10
  %12 = lshr exact i64 %11, 2
  %13 = trunc i64 %12 to i32
  %14 = icmp sgt i32 %13, 0
  br i1 %14, label %.lr.ph.preheader, label %._crit_edge

.lr.ph.preheader:                                 ; preds = %.preheader
  %15 = and i64 %12, 2147483647
  br label %.lr.ph

16:                                               ; preds = %._crit_edge
  ret i32 %.1.lcssa

._crit_edge:                                      ; preds = %29, %.preheader
  %.1.lcssa = phi i32 [ %.020, %.preheader ], [ %.2, %29 ]
  %indvars.iv.next23 = add nuw nsw i64 %indvars.iv22, 1
  %exitcond.not = icmp eq i64 %indvars.iv.next23, 64
  br i1 %exitcond.not, label %16, label %.preheader, !llvm.loop !414

.lr.ph:                                           ; preds = %.lr.ph.preheader, %29
  %indvars.iv = phi i64 [ 0, %.lr.ph.preheader ], [ %indvars.iv.next, %29 ]
  %.118 = phi i32 [ %.020, %.lr.ph.preheader ], [ %.2, %29 ]
  %17 = getelementptr inbounds nuw i32, ptr %8, i64 %indvars.iv
  %18 = load i32, ptr %17, align 4, !tbaa !61
  %19 = sext i32 %18 to i64
  %20 = getelementptr inbounds %union.t_iparams, ptr %2, i64 %19
  %21 = load float, ptr %20, align 4, !tbaa !65
  %22 = fcmp oeq float %21, 0.000000e+00
  br i1 %22, label %23, label %29

23:                                               ; preds = %.lr.ph
  %24 = getelementptr inbounds nuw i8, ptr %20, i64 4
  %25 = load float, ptr %24, align 4, !tbaa !65
  %26 = fcmp oeq float %25, 0.000000e+00
  br i1 %26, label %27, label %29

27:                                               ; preds = %23
  %28 = add nsw i32 %.118, 1
  br label %29

29:                                               ; preds = %27, %23, %.lr.ph
  %.2 = phi i32 [ %28, %27 ], [ %.118, %23 ], [ %.118, %.lr.ph ]
  %indvars.iv.next = add nuw nsw i64 %indvars.iv, 3
  %30 = icmp samesign ult i64 %indvars.iv.next, %15
  br i1 %30, label %.lr.ph, label %._crit_edge, !llvm.loop !415
}